target datalayout = "e-m:e-p270:32:32-p271:32:32-p272:64:64-i64:64-i128:128-f80:128-n8:16:32:64-S128"
target triple = "x86_64-pc-linux-gnu"

%struct._tvbparse_wanted_t = type { i32, ptr, %union.anon, i32, i32, i32, ptr, ptr, ptr }
%union.anon = type { %struct.anon.2 }
%struct.anon.2 = type { ptr, ptr, ptr }
%struct.__va_list_tag = type { i32, i32, ptr, ptr }

; Function Attrs: null_pointer_is_valid sspstrong uwtable
define ptr @tvbparse_set_seq(i32 noundef %0, ptr noundef %1, ptr noundef %2, ptr noundef %3, ...) #0 {
  %5 = alloca i32, align 4
  %6 = alloca ptr, align 8
  %7 = alloca ptr, align 8
  %8 = alloca ptr, align 8
  %9 = alloca ptr, align 8
  %10 = alloca ptr, align 8
  %11 = alloca [1 x %struct.__va_list_tag], align 16
  store i32 %0, ptr %5, align 4
  store ptr %1, ptr %6, align 8
  store ptr %2, ptr %7, align 8
  store ptr %3, ptr %8, align 8
  call void @llvm.lifetime.start.p0(i64 8, ptr %9) #11
  %12 = call ptr @wmem_epan_scope()
  %13 = call noalias ptr @wmem_alloc0(ptr noundef %12, i64 noundef 80) #12
  store ptr %13, ptr %9, align 8
  call void @llvm.lifetime.start.p0(i64 8, ptr %10) #11
  store ptr null, ptr %10, align 8
  call void @llvm.lifetime.start.p0(i64 24, ptr %11) #11
  %14 = load ptr, ptr %9, align 8
  %15 = getelementptr inbounds nuw %struct._tvbparse_wanted_t, ptr %14, i32 0, i32 1
  store ptr @cond_seq, ptr %15, align 8
  %16 = load i32, ptr %5, align 4
  %17 = load ptr, ptr %9, align 8
  %18 = getelementptr inbounds nuw %struct._tvbparse_wanted_t, ptr %17, i32 0, i32 0
  store i32 %16, ptr %18, align 8
  %19 = load ptr, ptr %6, align 8
  %20 = load ptr, ptr %9, align 8
  %21 = getelementptr inbounds nuw %struct._tvbparse_wanted_t, ptr %20, i32 0, i32 6
  store ptr %19, ptr %21, align 8
  %22 = load ptr, ptr %7, align 8
  %23 = load ptr, ptr %9, align 8
  %24 = getelementptr inbounds nuw %struct._tvbparse_wanted_t, ptr %23, i32 0, i32 7
  store ptr %22, ptr %24, align 8
  %25 = load ptr, ptr %8, align 8
  %26 = load ptr, ptr %9, align 8
  %27 = getelementptr inbounds nuw %struct._tvbparse_wanted_t, ptr %26, i32 0, i32 8
  store ptr %25, ptr %27, align 8
  %28 = call ptr @g_ptr_array_new()
  %29 = load ptr, ptr %9, align 8
  %30 = getelementptr inbounds nuw %struct._tvbparse_wanted_t, ptr %29, i32 0, i32 2
  store ptr %28, ptr %30, align 8
  %31 = call ptr @wmem_epan_scope()
  %32 = load ptr, ptr %9, align 8
  %33 = call i32 @wmem_register_callback(ptr noundef %31, ptr noundef @tvbparse_wanted_cleanup_cb, ptr noundef %32)
  %34 = getelementptr inbounds [1 x %struct.__va_list_tag], ptr %11, i64 0, i64 0
  call void @llvm.va_start.p0(ptr %34)
  br label %35

35:                                               ; preds = %53, %4
  %36 = getelementptr inbounds [1 x %struct.__va_list_tag], ptr %11, i64 0, i64 0
  %37 = getelementptr inbounds nuw %struct.__va_list_tag, ptr %36, i32 0, i32 0
  %38 = load i32, ptr %37, align 16
  %39 = icmp ule i32 %38, 40
  br i1 %39, label %40, label %45

40:                                               ; preds = %35
  %41 = getelementptr inbounds nuw %struct.__va_list_tag, ptr %36, i32 0, i32 3
  %42 = load ptr, ptr %41, align 16
  %43 = getelementptr i8, ptr %42, i32 %38
  %44 = add i32 %38, 8
  store i32 %44, ptr %37, align 16
  br label %49

45:                                               ; preds = %35
  %46 = getelementptr inbounds nuw %struct.__va_list_tag, ptr %36, i32 0, i32 2
  %47 = load ptr, ptr %46, align 8
  %48 = getelementptr i8, ptr %47, i32 8
  store ptr %48, ptr %46, align 8
  br label %49

49:                                               ; preds = %45, %40
  %50 = phi ptr [ %43, %40 ], [ %47, %45 ]
  %51 = load ptr, ptr %50, align 8
  store ptr %51, ptr %10, align 8
  %52 = icmp ne ptr %51, null
  br i1 %52, label %53, label %58

53:                                               ; preds = %49
  %54 = load ptr, ptr %9, align 8
  %55 = getelementptr inbounds nuw %struct._tvbparse_wanted_t, ptr %54, i32 0, i32 2
  %56 = load ptr, ptr %55, align 8
  %57 = load ptr, ptr %10, align 8
  call void @g_ptr_array_add(ptr noundef %56, ptr noundef %57)
  br label %35, !llvm.loop !18

58:                                               ; preds = %49
  %59 = getelementptr inbounds [1 x %struct.__va_list_tag], ptr %11, i64 0, i64 0
  call void @llvm.va_end.p0(ptr %59)
  %60 = load ptr, ptr %9, align 8
  call void @llvm.lifetime.end.p0(i64 24, ptr %11) #11
  call void @llvm.lifetime.end.p0(i64 8, ptr %10) #11
  call void @llvm.lifetime.end.p0(i64 8, ptr %9) #11
  ret ptr %60
}