; Function Attrs: null_pointer_is_valid sspstrong uwtable
define noundef ptr @tvbparse_set_seq(i32 noundef %0, ptr noundef %1, ptr noundef %2, ptr noundef %3, ...) local_unnamed_addr #0 {
  %5 = alloca [1 x %struct.__va_list_tag], align 16
  %6 = tail call ptr @wmem_epan_scope()
  %7 = tail call noalias dereferenceable_or_null(80) ptr @wmem_alloc0(ptr noundef %6, i64 noundef 80) #11
  call void @llvm.lifetime.start.p0(i64 24, ptr nonnull %5) #12
  %8 = getelementptr inbounds nuw i8, ptr %7, i64 8
  store ptr @cond_seq, ptr %8, align 8
  store i32 %0, ptr %7, align 8
  %9 = getelementptr inbounds nuw i8, ptr %7, i64 56
  store ptr %1, ptr %9, align 8
  %10 = getelementptr inbounds nuw i8, ptr %7, i64 64
  store ptr %2, ptr %10, align 8
  %11 = getelementptr inbounds nuw i8, ptr %7, i64 72
  store ptr %3, ptr %11, align 8
  %12 = tail call ptr @g_ptr_array_new()
  %13 = getelementptr inbounds nuw i8, ptr %7, i64 16
  store ptr %12, ptr %13, align 8
  %14 = tail call ptr @wmem_epan_scope()
  %15 = tail call i32 @wmem_register_callback(ptr noundef %14, ptr noundef nonnull @tvbparse_wanted_cleanup_cb, ptr noundef %7)
  call void @llvm.va_start.p0(ptr nonnull %5)
  %16 = getelementptr inbounds nuw i8, ptr %5, i64 8
  %17 = getelementptr inbounds nuw i8, ptr %5, i64 16
  br label %18

18:                                               ; preds = %32, %4
  %19 = load i32, ptr %5, align 16
  %20 = icmp ult i32 %19, 41
  br i1 %20, label %21, label %26

21:                                               ; preds = %18
  %22 = load ptr, ptr %17, align 16
  %23 = zext nneg i32 %19 to i64
  %24 = getelementptr i8, ptr %22, i64 %23
  %25 = add nuw nsw i32 %19, 8
  store i32 %25, ptr %5, align 16
  br label %29

26:                                               ; preds = %18
  %27 = load ptr, ptr %16, align 8
  %28 = getelementptr i8, ptr %27, i64 8
  store ptr %28, ptr %16, align 8
  br label %29

29:                                               ; preds = %26, %21
  %30 = phi ptr [ %24, %21 ], [ %27, %26 ]
  %31 = load ptr, ptr %30, align 8
  %.not = icmp eq ptr %31, null
  br i1 %.not, label %34, label %32

32:                                               ; preds = %29
  %33 = load ptr, ptr %13, align 8
  call void @g_ptr_array_add(ptr noundef %33, ptr noundef nonnull %31)
  br label %18, !llvm.loop !15

34:                                               ; preds = %29
  call void @llvm.va_end.p0(ptr nonnull %5)
  call void @llvm.lifetime.end.p0(i64 24, ptr nonnull %5) #12
  ret ptr %7
}